target datalayout = "e-m:e-p270:32:32-p271:32:32-p272:64:64-i64:64-i128:128-f80:128-n8:16:32:64-S128"
target triple = "x86_64-pc-linux-gnu"

; Function Attrs: nounwind uwtable
define dso_local i32 @set_config_option(ptr noundef %0, ptr noundef %1, i32 noundef %2, i32 noundef %3, i32 noundef %4, i1 noundef zeroext %5, i32 noundef %6, i1 noundef zeroext %7) #0 {
  %9 = alloca ptr, align 8
  %10 = alloca ptr, align 8
  %11 = alloca i32, align 4
  %12 = alloca i32, align 4
  %13 = alloca i32, align 4
  %14 = alloca i8, align 1
  %15 = alloca i32, align 4
  %16 = alloca i8, align 1
  %17 = alloca i32, align 4
  store ptr %0, ptr %9, align 8
  store ptr %1, ptr %10, align 8
  store i32 %2, ptr %11, align 4
  store i32 %3, ptr %12, align 4
  store i32 %4, ptr %13, align 4
  %18 = zext i1 %5 to i8
  store i8 %18, ptr %14, align 1
  store i32 %6, ptr %15, align 4
  %19 = zext i1 %7 to i8
  store i8 %19, ptr %16, align 1
  call void @llvm.lifetime.start.p0(i64 4, ptr %17) #16
  %20 = load i32, ptr %12, align 4
  %21 = icmp uge i32 %20, 11
  br i1 %21, label %25, label %22

22:                                               ; preds = %8
  %23 = load i32, ptr %12, align 4
  %24 = icmp eq i32 %23, 9
  br i1 %24, label %25, label %27

25:                                               ; preds = %22, %8
  %26 = call i32 @GetUserId()
  store i32 %26, ptr %17, align 4
  br label %28

27:                                               ; preds = %22
  store i32 10, ptr %17, align 4
  br label %28

28:                                               ; preds = %27, %25
  %29 = load ptr, ptr %9, align 8
  %30 = load ptr, ptr %10, align 8
  %31 = load i32, ptr %11, align 4
  %32 = load i32, ptr %12, align 4
  %33 = load i32, ptr %17, align 4
  %34 = load i32, ptr %13, align 4
  %35 = load i8, ptr %14, align 1, !range !4, !noundef !5
  %36 = trunc i8 %35 to i1
  %37 = load i32, ptr %15, align 4
  %38 = load i8, ptr %16, align 1, !range !4, !noundef !5
  %39 = trunc i8 %38 to i1
  %40 = call i32 @set_config_with_handle(ptr noundef %29, ptr noundef null, ptr noundef %30, i32 noundef %31, i32 noundef %32, i32 noundef %33, i32 noundef %34, i1 noundef zeroext %36, i32 noundef %37, i1 noundef zeroext %39)
  call void @llvm.lifetime.end.p0(i64 4, ptr %17) #16
  ret i32 %40
}

; Function Attrs: nounwind uwtable
define dso_local void @SetConfigOption(ptr noundef %0, ptr noundef %1, i32 noundef %2, i32 noundef %3) #0 {
  %5 = alloca ptr, align 8
  %6 = alloca ptr, align 8
  %7 = alloca i32, align 4
  %8 = alloca i32, align 4
  store ptr %0, ptr %5, align 8
  store ptr %1, ptr %6, align 8
  store i32 %2, ptr %7, align 4
  store i32 %3, ptr %8, align 4
  %9 = load ptr, ptr %5, align 8
  %10 = load ptr, ptr %6, align 8
  %11 = load i32, ptr %7, align 4
  %12 = load i32, ptr %8, align 4
  %13 = call i32 @set_config_option(ptr noundef %9, ptr noundef %10, i32 noundef %11, i32 noundef %12, i32 noundef 0, i1 noundef zeroext true, i32 noundef 0, i1 noundef zeroext false)
  ret void
}