; Function Attrs: nounwind uwtable
define dso_local void @SetConfigOption(ptr noundef %0, ptr noundef %1, i32 noundef %2, i32 noundef %3) local_unnamed_addr #0 {
  %5 = icmp ugt i32 %3, 10
  %6 = icmp eq i32 %3, 9
  %or.cond.i = or i1 %5, %6
  br i1 %or.cond.i, label %7, label %set_config_option.exit

7:                                                ; preds = %4
  %8 = tail call i32 @GetUserId() #29
  br label %set_config_option.exit

set_config_option.exit:                           ; preds = %4, %7
  %.0.i = phi i32 [ %8, %7 ], [ 10, %4 ]
  %9 = tail call range(i32 -1, 2) i32 @set_config_with_handle(ptr noundef %0, ptr noundef null, ptr noundef %1, i32 noundef %2, i32 noundef %3, i32 noundef %.0.i, i32 noundef 0, i1 noundef zeroext true, i32 noundef 0, i1 noundef zeroext false)
  ret void
}